; Function Attrs: mustprogress uwtable
define void @_ZN5boost4urls15static_url_baseC2EPcmNS_4core17basic_string_viewIcEE(ptr noundef nonnull align 8 dereferenceable(216) %0, ptr noundef %1, i64 noundef %2, ptr %3, i64 %4) unnamed_addr #2 align 2 personality ptr @__gxx_personality_v0 {
  %6 = alloca %"class.boost::urls::url_view", align 8
  %7 = alloca %"class.boost::system::result", align 8
  %8 = alloca %"struct.boost::source_location", align 8
  %9 = getelementptr inbounds i8, ptr %0, i64 8
  tail call void @_ZN5boost4urls13url_view_baseC2Ev(ptr noundef nonnull align 8 dereferenceable(192) %9) #19
  %10 = getelementptr inbounds nuw i8, ptr %0, i64 200
  store ptr getelementptr inbounds inrange(-16, 40) (i8, ptr @_ZTVN5boost4urls15static_url_baseE, i64 16), ptr %0, align 8, !tbaa !3
  store ptr %1, ptr %10, align 8, !tbaa !6
  %11 = getelementptr inbounds nuw i8, ptr %0, i64 208
  store i64 %2, ptr %11, align 8, !tbaa !17
  store i8 0, ptr %1, align 1, !tbaa !18
  %12 = load ptr, ptr %10, align 8, !tbaa !6
  %13 = getelementptr inbounds i8, ptr %0, i64 16
  store ptr %12, ptr %13, align 8, !tbaa !19
  call void @llvm.lifetime.start.p0(i64 192, ptr nonnull %6) #19
  call void @llvm.lifetime.start.p0(i64 200, ptr nonnull %7) #19
  call void @_ZN5boost4urls19parse_uri_referenceENS_4core17basic_string_viewIcEE(ptr dead_on_unwind nonnull writable sret(%"class.boost::system::result") align 8 %7, ptr %3, i64 %4)
  call void @llvm.lifetime.start.p0(i64 24, ptr nonnull %8) #19
  store ptr @.str, ptr %8, align 8, !tbaa !20
  %14 = getelementptr inbounds nuw i8, ptr %8, i64 8
  store ptr @.str.1, ptr %14, align 8, !tbaa !23
  %15 = getelementptr inbounds nuw i8, ptr %8, i64 16
  store i32 40, ptr %15, align 8, !tbaa !24
  %16 = getelementptr inbounds nuw i8, ptr %8, i64 20
  store i32 17, ptr %16, align 4, !tbaa !25
  %17 = getelementptr inbounds nuw i8, ptr %7, i64 192
  %18 = load i32, ptr %17, align 8, !tbaa !26, !noalias !28
  %19 = icmp eq i32 %18, 1
  br i1 %19, label %_ZN5boost4urls15static_url_base4copyERKNS0_13url_view_baseE.exit, label %.noexc

.noexc:                                           ; preds = %5
  call void @_ZN5boost6system26throw_exception_from_errorERKNS0_10error_codeERKNS_15source_locationE(ptr noundef nonnull align 8 dereferenceable(200) %7, ptr noundef nonnull align 8 dereferenceable(24) %8) #20
  unreachable

_ZN5boost4urls15static_url_base4copyERKNS0_13url_view_baseE.exit: ; preds = %5
  call void @_ZN5boost4urls8url_viewC2ERKNS0_13url_view_baseE(ptr noundef nonnull align 8 dereferenceable(192) %6, ptr noundef nonnull align 8 dereferenceable(200) %7) #19
  call void @_ZN5boost4urls8url_base4copyERKNS0_13url_view_baseE(ptr noundef nonnull align 8 dereferenceable(216) %0, ptr noundef nonnull align 8 dereferenceable(192) %6)
  call void @llvm.lifetime.end.p0(i64 24, ptr nonnull %8) #19
  call void @llvm.lifetime.end.p0(i64 200, ptr nonnull %7) #19
  call void @llvm.lifetime.end.p0(i64 192, ptr nonnull %6) #19
  ret void
}